target datalayout = "e-m:e-p270:32:32-p271:32:32-p272:64:64-i64:64-i128:128-f80:128-n8:16:32:64-S128"
target triple = "x86_64-pc-linux-gnu"

%"class.datalog::mk_quantifier_abstraction" = type { %"class.datalog::rule_transformer::plugin", ptr, ptr, %class.array_util, %class.ref_vector, %class.obj_map, %class.obj_map, ptr }
%"class.datalog::rule_transformer::plugin" = type { ptr, i32, i8, ptr }
%class.array_util = type { %class.array_recognizers, ptr }
%class.array_recognizers = type { i32 }
%class.ref_vector = type { %class.ref_vector_core }
%class.ref_vector_core = type { %class.ref_manager_wrapper, %class.ptr_vector }
%class.ref_manager_wrapper = type { ptr }
%class.ptr_vector = type { %class.vector }
%class.vector = type { ptr }
%class.obj_map = type { %class.core_hashtable }
%class.core_hashtable = type <{ ptr, i32, i32, i32, [4 x i8] }>
%class.ptr_vector.7 = type { %class.vector.8 }
%class.vector.8 = type { ptr }

; Function Attrs: mustprogress nounwind uwtable
define linkonce_odr hidden void @_ZN6vectorIP4exprLb0EjEC2Ev(ptr noundef nonnull align 8 dereferenceable(8) %0) unnamed_addr #5 comdat align 2 {
  %2 = alloca ptr, align 8
  store ptr %0, ptr %2, align 8, !tbaa !370
  %3 = load ptr, ptr %2, align 8
  %4 = getelementptr inbounds nuw %class.vector.8, ptr %3, i32 0, i32 0
  store ptr null, ptr %4, align 8, !tbaa !372
  ret void
}

; Function Attrs: mustprogress uwtable
define linkonce_odr hidden noundef ptr @_ZNK10array_util9mk_selectEjPKP4expr(ptr noundef nonnull align 8 dereferenceable(16) %0, i32 noundef %1, ptr noundef %2) #4 comdat align 2 {
  %4 = alloca ptr, align 8
  %5 = alloca i32, align 4
  %6 = alloca ptr, align 8
  store ptr %0, ptr %4, align 8, !tbaa !374
  store i32 %1, ptr %5, align 4, !tbaa !10
  store ptr %2, ptr %6, align 8, !tbaa !274
  %7 = load ptr, ptr %4, align 8
  %8 = getelementptr inbounds nuw %class.array_util, ptr %7, i32 0, i32 1
  %9 = load ptr, ptr %8, align 8, !tbaa !376
  %10 = getelementptr inbounds nuw %class.array_recognizers, ptr %7, i32 0, i32 0
  %11 = load i32, ptr %10, align 8, !tbaa !250
  %12 = load i32, ptr %5, align 4, !tbaa !10
  %13 = load ptr, ptr %6, align 8, !tbaa !274
  %14 = call noundef ptr @_ZN11ast_manager6mk_appEiijPK9parameterjPKP4exprP4sort(ptr noundef nonnull align 8 dereferenceable(976) %9, i32 noundef %11, i32 noundef 1, i32 noundef 0, ptr noundef null, i32 noundef %12, ptr noundef %13, ptr noundef null)
  ret ptr %14
}

; Function Attrs: mustprogress nounwind uwtable
define linkonce_odr hidden noundef ptr @_ZNK6vectorIP4exprLb0EjE4dataEv(ptr noundef nonnull align 8 dereferenceable(8) %0) #5 comdat align 2 {
  %2 = alloca ptr, align 8
  store ptr %0, ptr %2, align 8, !tbaa !370
  %3 = load ptr, ptr %2, align 8
  %4 = getelementptr inbounds nuw %class.vector.8, ptr %3, i32 0, i32 0
  %5 = load ptr, ptr %4, align 8, !tbaa !372
  ret ptr %5
}

; Function Attrs: mustprogress nounwind uwtable
define linkonce_odr hidden noundef i32 @_ZNK6vectorIP4exprLb0EjE4sizeEv(ptr noundef nonnull align 8 dereferenceable(8) %0) #5 comdat align 2 {
  %2 = alloca i32, align 4
  %3 = alloca ptr, align 8
  store ptr %0, ptr %3, align 8, !tbaa !370
  %4 = load ptr, ptr %3, align 8
  %5 = getelementptr inbounds nuw %class.vector.8, ptr %4, i32 0, i32 0
  %6 = load ptr, ptr %5, align 8, !tbaa !372
  %7 = icmp eq ptr %6, null
  br i1 %7, label %8, label %9

8:                                                ; preds = %1
  store i32 0, ptr %2, align 4
  br label %14

9:                                                ; preds = %1
  %10 = getelementptr inbounds nuw %class.vector.8, ptr %4, i32 0, i32 0
  %11 = load ptr, ptr %10, align 8, !tbaa !372
  %12 = getelementptr inbounds i32, ptr %11, i64 -1
  %13 = load i32, ptr %12, align 4, !tbaa !10
  store i32 %13, ptr %2, align 4
  br label %14

14:                                               ; preds = %9, %8
  %15 = load i32, ptr %2, align 4
  ret i32 %15
}

; Function Attrs: mustprogress uwtable
define linkonce_odr hidden void @_ZN6vectorIP4exprLb0EjE6appendEjPKS1_(ptr noundef nonnull align 8 dereferenceable(8) %0, i32 noundef %1, ptr noundef %2) #4 comdat align 2 {
  %4 = alloca ptr, align 8
  %5 = alloca i32, align 4
  %6 = alloca ptr, align 8
  %7 = alloca i32, align 4
  store ptr %0, ptr %4, align 8, !tbaa !370
  store i32 %1, ptr %5, align 4, !tbaa !10
  store ptr %2, ptr %6, align 8, !tbaa !274
  %8 = load ptr, ptr %4, align 8
  call void @llvm.lifetime.start.p0(i64 4, ptr %7) #3
  store i32 0, ptr %7, align 4, !tbaa !10
  br label %9

9:                                                ; preds = %20, %3
  %10 = load i32, ptr %7, align 4, !tbaa !10
  %11 = load i32, ptr %5, align 4, !tbaa !10
  %12 = icmp ult i32 %10, %11
  br i1 %12, label %14, label %13

13:                                               ; preds = %9
  call void @llvm.lifetime.end.p0(i64 4, ptr %7) #3
  br label %23

14:                                               ; preds = %9
  %15 = load ptr, ptr %6, align 8, !tbaa !274
  %16 = load i32, ptr %7, align 4, !tbaa !10
  %17 = zext i32 %16 to i64
  %18 = getelementptr inbounds nuw ptr, ptr %15, i64 %17
  %19 = call noundef nonnull align 8 dereferenceable(8) ptr @_ZN6vectorIP4exprLb0EjE9push_backERKS1_(ptr noundef nonnull align 8 dereferenceable(8) %8, ptr noundef nonnull align 8 dereferenceable(8) %18)
  br label %20

20:                                               ; preds = %14
  %21 = load i32, ptr %7, align 4, !tbaa !10
  %22 = add i32 %21, 1
  store i32 %22, ptr %7, align 4, !tbaa !10
  br label %9, !llvm.loop !373

23:                                               ; preds = %13
  ret void
}

; Function Attrs: mustprogress uwtable
define linkonce_odr hidden noundef nonnull align 8 dereferenceable(8) ptr @_ZN6vectorIP4exprLb0EjE9push_backERKS1_(ptr noundef nonnull align 8 dereferenceable(8) %0, ptr noundef nonnull align 8 dereferenceable(8) %1) #4 comdat align 2 {
  %3 = alloca ptr, align 8
  %4 = alloca ptr, align 8
  store ptr %0, ptr %3, align 8, !tbaa !370
  store ptr %1, ptr %4, align 8, !tbaa !274
  %5 = load ptr, ptr %3, align 8
  %6 = getelementptr inbounds nuw %class.vector.8, ptr %5, i32 0, i32 0
  %7 = load ptr, ptr %6, align 8, !tbaa !372
  %8 = icmp eq ptr %7, null
  br i1 %8, label %19, label %9

9:                                                ; preds = %2
  %10 = getelementptr inbounds nuw %class.vector.8, ptr %5, i32 0, i32 0
  %11 = load ptr, ptr %10, align 8, !tbaa !372
  %12 = getelementptr inbounds i32, ptr %11, i64 -1
  %13 = load i32, ptr %12, align 4, !tbaa !10
  %14 = getelementptr inbounds nuw %class.vector.8, ptr %5, i32 0, i32 0
  %15 = load ptr, ptr %14, align 8, !tbaa !372
  %16 = getelementptr inbounds i32, ptr %15, i64 -2
  %17 = load i32, ptr %16, align 4, !tbaa !10
  %18 = icmp eq i32 %13, %17
  br i1 %18, label %19, label %20

19:                                               ; preds = %9, %2
  call void @_ZN6vectorIP4exprLb0EjE13expand_vectorEv(ptr noundef nonnull align 8 dereferenceable(8) %5)
  br label %20

20:                                               ; preds = %19, %9
  %21 = getelementptr inbounds nuw %class.vector.8, ptr %5, i32 0, i32 0
  %22 = load ptr, ptr %21, align 8, !tbaa !372
  %23 = getelementptr inbounds nuw %class.vector.8, ptr %5, i32 0, i32 0
  %24 = load ptr, ptr %23, align 8, !tbaa !372
  %25 = getelementptr inbounds i32, ptr %24, i64 -1
  %26 = load i32, ptr %25, align 4, !tbaa !10
  %27 = zext i32 %26 to i64
  %28 = getelementptr inbounds nuw ptr, ptr %22, i64 %27
  %29 = load ptr, ptr %4, align 8, !tbaa !274
  %30 = load ptr, ptr %29, align 8, !tbaa !267
  store ptr %30, ptr %28, align 8, !tbaa !267
  %31 = getelementptr inbounds nuw %class.vector.8, ptr %5, i32 0, i32 0
  %32 = load ptr, ptr %31, align 8, !tbaa !372
  %33 = getelementptr inbounds i32, ptr %32, i64 -1
  %34 = load i32, ptr %33, align 4, !tbaa !10
  %35 = add i32 %34, 1
  store i32 %35, ptr %33, align 4, !tbaa !10
  ret ptr %5
}

; Function Attrs: mustprogress nounwind uwtable
define linkonce_odr hidden void @_ZN10ptr_vectorI4exprEC2Ev(ptr noundef nonnull align 8 dereferenceable(8) %0) unnamed_addr #5 comdat align 2 {
  %2 = alloca ptr, align 8
  store ptr %0, ptr %2, align 8, !tbaa !368
  %3 = load ptr, ptr %2, align 8
  call void @_ZN6vectorIP4exprLb0EjEC2Ev(ptr noundef nonnull align 8 dereferenceable(8) %3) #3
  ret void
}

; Function Attrs: mustprogress uwtable
define hidden noundef ptr @_ZN7datalog25mk_quantifier_abstraction9mk_selectEP4exprjPKS2_(ptr noundef nonnull align 8 dereferenceable(128) %0, ptr noundef %1, i32 noundef %2, ptr noundef %3) #4 align 2 personality ptr @__gxx_personality_v0 {
  %5 = alloca ptr, align 8
  %6 = alloca ptr, align 8
  %7 = alloca i32, align 4
  %8 = alloca ptr, align 8
  %9 = alloca %class.ptr_vector.7, align 8
  %10 = alloca ptr, align 8
  %11 = alloca i32, align 4
  store ptr %0, ptr %5, align 8, !tbaa !3
  store ptr %1, ptr %6, align 8, !tbaa !267
  store i32 %2, ptr %7, align 4, !tbaa !10
  store ptr %3, ptr %8, align 8, !tbaa !274
  %12 = load ptr, ptr %5, align 8
  call void @llvm.lifetime.start.p0(i64 8, ptr %9) #3
  call void @_ZN10ptr_vectorI4exprEC2Ev(ptr noundef nonnull align 8 dereferenceable(8) %9) #3
  %13 = invoke noundef nonnull align 8 dereferenceable(8) ptr @_ZN6vectorIP4exprLb0EjE9push_backERKS1_(ptr noundef nonnull align 8 dereferenceable(8) %9, ptr noundef nonnull align 8 dereferenceable(8) %6)
          to label %14 unwind label %25

14:                                               ; preds = %4
  %15 = load i32, ptr %7, align 4, !tbaa !10
  %16 = load ptr, ptr %8, align 8, !tbaa !274
  invoke void @_ZN6vectorIP4exprLb0EjE6appendEjPKS1_(ptr noundef nonnull align 8 dereferenceable(8) %9, i32 noundef %15, ptr noundef %16)
          to label %17 unwind label %25

17:                                               ; preds = %14
  %18 = getelementptr inbounds nuw %"class.datalog::mk_quantifier_abstraction", ptr %12, i32 0, i32 3
  %19 = invoke noundef i32 @_ZNK6vectorIP4exprLb0EjE4sizeEv(ptr noundef nonnull align 8 dereferenceable(8) %9)
          to label %20 unwind label %25

20:                                               ; preds = %17
  %21 = invoke noundef ptr @_ZNK6vectorIP4exprLb0EjE4dataEv(ptr noundef nonnull align 8 dereferenceable(8) %9)
          to label %22 unwind label %25

22:                                               ; preds = %20
  %23 = invoke noundef ptr @_ZNK10array_util9mk_selectEjPKP4expr(ptr noundef nonnull align 8 dereferenceable(16) %18, i32 noundef %19, ptr noundef %21)
          to label %24 unwind label %25

24:                                               ; preds = %22
  call void @_ZN6vectorIP4exprLb0EjED2Ev(ptr noundef nonnull align 8 dereferenceable(8) %9) #3
  call void @llvm.lifetime.end.p0(i64 8, ptr %9) #3
  ret ptr %23

25:                                               ; preds = %22, %20, %17, %14, %4
  %26 = landingpad { ptr, i32 }
          cleanup
  %27 = extractvalue { ptr, i32 } %26, 0
  store ptr %27, ptr %10, align 8
  %28 = extractvalue { ptr, i32 } %26, 1
  store i32 %28, ptr %11, align 4
  call void @_ZN6vectorIP4exprLb0EjED2Ev(ptr noundef nonnull align 8 dereferenceable(8) %9) #3
  call void @llvm.lifetime.end.p0(i64 8, ptr %9) #3
  br label %29

29:                                               ; preds = %25
  %30 = load ptr, ptr %10, align 8
  %31 = load i32, ptr %11, align 4
  %32 = insertvalue { ptr, i32 } poison, ptr %30, 0
  %33 = insertvalue { ptr, i32 } %32, i32 %31, 1
  resume { ptr, i32 } %33
}