; Function Attrs: mustprogress uwtable
define hidden noundef ptr @_ZN7datalog25mk_quantifier_abstraction9mk_selectEP4exprjPKS2_(ptr noundef nonnull readonly align 8 captures(none) dereferenceable(128) %0, ptr noundef %1, i32 noundef %2, ptr noundef readonly captures(none) %3) local_unnamed_addr #3 align 2 personality ptr @__gxx_personality_v0 {
  %5 = alloca %class.ptr_vector.7, align 8
  call void @llvm.lifetime.start.p0(i64 8, ptr nonnull %5) #19
  store ptr null, ptr %5, align 8, !tbaa !255
  invoke void @_ZN6vectorIP4exprLb0EjE13expand_vectorEv(ptr noundef nonnull align 8 dereferenceable(8) %5)
          to label %6 unwind label %.loopexit.split-lp

6:                                                ; preds = %4
  %.pre.i = load ptr, ptr %5, align 8, !tbaa !255
  %.phi.trans.insert.i = getelementptr inbounds i8, ptr %.pre.i, i64 -4
  %.pre2.i = load i32, ptr %.phi.trans.insert.i, align 4, !tbaa !222
  %7 = zext i32 %.pre2.i to i64
  %8 = getelementptr inbounds nuw ptr, ptr %.pre.i, i64 %7
  store ptr %1, ptr %8, align 8, !tbaa !277
  %9 = add i32 %.pre2.i, 1
  store i32 %9, ptr %.phi.trans.insert.i, align 4, !tbaa !222
  %.not.i = icmp eq i32 %2, 0
  br i1 %.not.i, label %_ZNK6vectorIP4exprLb0EjE4sizeEv.exit, label %.lr.ph.preheader.i

.lr.ph.preheader.i:                               ; preds = %6
  %wide.trip.count.i = zext i32 %2 to i64
  br label %10

10:                                               ; preds = %.lr.ph.preheader.i, %_ZN6vectorIP4exprLb0EjE9push_backERKS1_.exit.i
  %11 = phi i32 [ %9, %.lr.ph.preheader.i ], [ %24, %_ZN6vectorIP4exprLb0EjE9push_backERKS1_.exit.i ]
  %12 = phi ptr [ %.pre.i, %.lr.ph.preheader.i ], [ %18, %_ZN6vectorIP4exprLb0EjE9push_backERKS1_.exit.i ]
  %indvars.iv.i = phi i64 [ 0, %.lr.ph.preheader.i ], [ %indvars.iv.next.i, %_ZN6vectorIP4exprLb0EjE9push_backERKS1_.exit.i ]
  %13 = getelementptr inbounds nuw ptr, ptr %3, i64 %indvars.iv.i
  %14 = getelementptr inbounds i8, ptr %12, i64 -8
  %15 = load i32, ptr %14, align 4, !tbaa !222
  %16 = icmp eq i32 %11, %15
  br i1 %16, label %17, label %_ZN6vectorIP4exprLb0EjE9push_backERKS1_.exit.i

17:                                               ; preds = %10
  invoke void @_ZN6vectorIP4exprLb0EjE13expand_vectorEv(ptr noundef nonnull align 8 dereferenceable(8) %5)
          to label %.noexc5 unwind label %.loopexit

.noexc5:                                          ; preds = %17
  %.pre.i.i = load ptr, ptr %5, align 8, !tbaa !255
  %.phi.trans.insert.i.i = getelementptr inbounds i8, ptr %.pre.i.i, i64 -4
  %.pre2.i.i = load i32, ptr %.phi.trans.insert.i.i, align 4, !tbaa !222
  br label %_ZN6vectorIP4exprLb0EjE9push_backERKS1_.exit.i

_ZN6vectorIP4exprLb0EjE9push_backERKS1_.exit.i:   ; preds = %.noexc5, %10
  %18 = phi ptr [ %.pre.i.i, %.noexc5 ], [ %12, %10 ]
  %19 = phi i32 [ %.pre2.i.i, %.noexc5 ], [ %11, %10 ]
  %20 = getelementptr inbounds i8, ptr %18, i64 -4
  %21 = zext i32 %19 to i64
  %22 = getelementptr inbounds nuw ptr, ptr %18, i64 %21
  %23 = load ptr, ptr %13, align 8, !tbaa !277
  store ptr %23, ptr %22, align 8, !tbaa !277
  %24 = add i32 %19, 1
  store i32 %24, ptr %20, align 4, !tbaa !222
  %indvars.iv.next.i = add nuw nsw i64 %indvars.iv.i, 1
  %exitcond.not.i = icmp eq i64 %indvars.iv.next.i, %wide.trip.count.i
  br i1 %exitcond.not.i, label %_ZNK6vectorIP4exprLb0EjE4sizeEv.exit, label %10, !llvm.loop !280

_ZNK6vectorIP4exprLb0EjE4sizeEv.exit:             ; preds = %_ZN6vectorIP4exprLb0EjE9push_backERKS1_.exit.i, %6
  %25 = phi i32 [ %9, %6 ], [ %24, %_ZN6vectorIP4exprLb0EjE9push_backERKS1_.exit.i ]
  %26 = phi ptr [ %.pre.i, %6 ], [ %18, %_ZN6vectorIP4exprLb0EjE9push_backERKS1_.exit.i ]
  %27 = getelementptr inbounds nuw i8, ptr %0, i64 40
  %28 = getelementptr inbounds nuw i8, ptr %0, i64 48
  %29 = load ptr, ptr %28, align 8, !tbaa !281
  %30 = load i32, ptr %27, align 8, !tbaa !259
  %31 = invoke noundef ptr @_ZN11ast_manager6mk_appEiijPK9parameterjPKP4exprP4sort(ptr noundef nonnull align 8 dereferenceable(976) %29, i32 noundef %30, i32 noundef 1, i32 noundef 0, ptr noundef null, i32 noundef %25, ptr noundef nonnull %26, ptr noundef null)
          to label %_ZNK10array_util9mk_selectEjPKP4expr.exit unwind label %.loopexit.split-lp

_ZNK10array_util9mk_selectEjPKP4expr.exit:        ; preds = %_ZNK6vectorIP4exprLb0EjE4sizeEv.exit
  %32 = load ptr, ptr %5, align 8, !tbaa !255
  %.not.i.i = icmp eq ptr %32, null
  br i1 %.not.i.i, label %_ZN6vectorIP4exprLb0EjED2Ev.exit, label %33

33:                                               ; preds = %_ZNK10array_util9mk_selectEjPKP4expr.exit
  %34 = getelementptr inbounds i8, ptr %32, i64 -8
  invoke void @_ZN6memory10deallocateEPv(ptr noundef nonnull %34)
          to label %_ZN6vectorIP4exprLb0EjED2Ev.exit unwind label %35

35:                                               ; preds = %33
  %36 = landingpad { ptr, i32 }
          catch ptr null
  %37 = extractvalue { ptr, i32 } %36, 0
  call void @__clang_call_terminate(ptr %37) #20
  unreachable

_ZN6vectorIP4exprLb0EjED2Ev.exit:                 ; preds = %_ZNK10array_util9mk_selectEjPKP4expr.exit, %33
  call void @llvm.lifetime.end.p0(i64 8, ptr nonnull %5) #19
  ret ptr %31

.loopexit:                                        ; preds = %17
  %lpad.loopexit = landingpad { ptr, i32 }
          cleanup
  br label %38

.loopexit.split-lp:                               ; preds = %4, %_ZNK6vectorIP4exprLb0EjE4sizeEv.exit
  %lpad.loopexit.split-lp = landingpad { ptr, i32 }
          cleanup
  br label %38

38:                                               ; preds = %.loopexit.split-lp, %.loopexit
  %lpad.phi = phi { ptr, i32 } [ %lpad.loopexit, %.loopexit ], [ %lpad.loopexit.split-lp, %.loopexit.split-lp ]
  call void @_ZN6vectorIP4exprLb0EjED2Ev(ptr noundef nonnull align 8 dereferenceable(8) %5) #19
  call void @llvm.lifetime.end.p0(i64 8, ptr nonnull %5) #19
  resume { ptr, i32 } %lpad.phi
}